; Function Attrs: mustprogress nofree norecurse nosync nounwind willreturn memory(readwrite, inaccessiblemem: none) uwtable
define internal void @_ZNK8LightGBM16RegressionL2loss14BoostFromScoreEi.omp_outlined.21.omp.reduction.reduction_func(ptr noundef readonly captures(none) %0, ptr noundef readonly captures(none) %1) #18 {
  %3 = load ptr, ptr %1, align 8
  %4 = load ptr, ptr %0, align 8
  %5 = load double, ptr %4, align 8, !tbaa !153
  %6 = load double, ptr %3, align 8, !tbaa !153
  %7 = fadd double %5, %6
  store double %7, ptr %4, align 8, !tbaa !153
  ret void
}